; Function Attrs: nounwind uwtable
define internal fastcc void @set_tablesample_rel_size(ptr noundef %0, ptr noundef %1, ptr readonly captures(none) %.48.val) unnamed_addr #0 {
  %3 = alloca i32, align 4
  %4 = alloca double, align 8
  call void @llvm.lifetime.start.p0(i64 4, ptr nonnull %3) #9
  call void @llvm.lifetime.start.p0(i64 8, ptr nonnull %4) #9
  tail call void @check_index_predicates(ptr noundef %0, ptr noundef %1) #9
  %5 = getelementptr inbounds nuw i8, ptr %.48.val, i64 4
  %6 = load i32, ptr %5, align 4
  %7 = tail call ptr @GetTsmRoutine(i32 noundef %6) #9
  %8 = getelementptr inbounds nuw i8, ptr %7, i64 24
  %9 = load ptr, ptr %8, align 8
  %10 = getelementptr inbounds nuw i8, ptr %.48.val, i64 8
  %11 = load ptr, ptr %10, align 8
  call void %9(ptr noundef %0, ptr noundef %1, ptr noundef %11, ptr noundef nonnull %3, ptr noundef nonnull %4) #9
  %12 = load i32, ptr %3, align 4
  %13 = getelementptr inbounds nuw i8, ptr %1, i64 192
  store i32 %12, ptr %13, align 8
  %14 = load double, ptr %4, align 8
  %15 = getelementptr inbounds nuw i8, ptr %1, i64 200
  store double %14, ptr %15, align 8
  call void @set_baserel_size_estimates(ptr noundef %0, ptr noundef %1) #9
  call void @llvm.lifetime.end.p0(i64 8, ptr nonnull %4) #9
  call void @llvm.lifetime.end.p0(i64 4, ptr nonnull %3) #9
  ret void
}